target datalayout = "e-m:e-p270:32:32-p271:32:32-p272:64:64-i64:64-i128:128-f80:128-n8:16:32:64-S128"
target triple = "x86_64-unknown-linux-gnu"

@je_malloc_message = dso_local global ptr null, align 8

; Function Attrs: nounwind uwtable
define internal i64 @malloc_write_fd(i32 noundef %fd, ptr noundef %buf, i64 noundef %count) #0 {
entry:
  %fd.addr = alloca i32, align 4
  %buf.addr = alloca ptr, align 8
  %count.addr = alloca i64, align 8
  %result = alloca i64, align 8
  store i32 %fd, ptr %fd.addr, align 4
  store ptr %buf, ptr %buf.addr, align 8
  store i64 %count, ptr %count.addr, align 8
  %0 = load i32, ptr %fd.addr, align 4
  %1 = load ptr, ptr %buf.addr, align 8
  %2 = load i64, ptr %count.addr, align 8
  %call = call i64 (i64, ...) @syscall(i64 noundef 1, i32 noundef %0, ptr noundef %1, i64 noundef %2) #8
  store i64 %call, ptr %result, align 8
  %3 = load i64, ptr %result, align 8
  ret i64 %3
}

; Function Attrs: nounwind uwtable
define hidden void @wrtmessage(ptr noundef %cbopaque, ptr noundef %s) #0 {
entry:
  %cbopaque.addr = alloca ptr, align 8
  %s.addr = alloca ptr, align 8
  store ptr %cbopaque, ptr %cbopaque.addr, align 8
  store ptr %s, ptr %s.addr, align 8
  %0 = load ptr, ptr %s.addr, align 8
  %1 = load ptr, ptr %s.addr, align 8
  %call = call i64 @strlen(ptr noundef %1) #7
  %call1 = call i64 @malloc_write_fd(i32 noundef 2, ptr noundef %0, i64 noundef %call)
  ret void
}

; Function Attrs: nounwind uwtable
define hidden void @malloc_write(ptr noundef %s) #0 {
entry:
  %s.addr = alloca ptr, align 8
  store ptr %s, ptr %s.addr, align 8
  %0 = load ptr, ptr @je_malloc_message, align 8
  %cmp = icmp ne ptr %0, null
  br i1 %cmp, label %if.then, label %if.else

if.then:                                          ; preds = %entry
  %1 = load ptr, ptr @je_malloc_message, align 8
  %2 = load ptr, ptr %s.addr, align 8
  call void %1(ptr noundef null, ptr noundef %2)
  br label %if.end

if.else:                                          ; preds = %entry
  %3 = load ptr, ptr %s.addr, align 8
  call void @wrtmessage(ptr noundef null, ptr noundef %3)
  br label %if.end

if.end:                                           ; preds = %if.else, %if.then
  ret void
}