; Function Attrs: nounwind uwtable
define hidden void @malloc_write(ptr noundef %s) local_unnamed_addr #0 {
entry:
  %0 = load ptr, ptr @je_malloc_message, align 8
  %cmp.not = icmp eq ptr %0, null
  br i1 %cmp.not, label %if.else, label %if.then

if.then:                                          ; preds = %entry
  tail call void %0(ptr noundef null, ptr noundef %s) #13
  br label %if.end

if.else:                                          ; preds = %entry
  %call.i = tail call i64 @strlen(ptr noundef nonnull dereferenceable(1) %s) #12
  %call.i.i = tail call i64 (i64, ...) @syscall(i64 noundef 1, i32 noundef 2, ptr noundef %s, i64 noundef %call.i) #13
  br label %if.end

if.end:                                           ; preds = %if.else, %if.then
  ret void
}